target datalayout = "e-m:e-p270:32:32-p271:32:32-p272:64:64-i64:64-i128:128-f80:128-n8:16:32:64-S128"
target triple = "x86_64-pc-linux-gnu"

%struct.Agi_Man_t_ = type { ptr, ptr, i32, i32, i32, i32, i32, %struct.Vec_Int_t_, %struct.Vec_Int_t_, ptr, ptr, ptr, ptr, ptr, ptr }
%struct.Vec_Int_t_ = type { i32, i32, ptr }

; Function Attrs: inlinehint nounwind uwtable
define internal i32 @Agi_ObjLit1(ptr noundef %0, i32 noundef %1) #2 {
  %3 = alloca ptr, align 8
  %4 = alloca i32, align 4
  store ptr %0, ptr %3, align 8, !tbaa !7
  store i32 %1, ptr %4, align 4, !tbaa !3
  %5 = load ptr, ptr %3, align 8, !tbaa !7
  %6 = getelementptr inbounds nuw %struct.Agi_Man_t_, ptr %5, i32 0, i32 9
  %7 = load ptr, ptr %6, align 8, !tbaa !16
  %8 = load i32, ptr %4, align 4, !tbaa !3
  %9 = sext i32 %8 to i64
  %10 = getelementptr inbounds i64, ptr %7, i64 %9
  %11 = load i64, ptr %10, align 8, !tbaa !18
  %12 = lshr i64 %11, 32
  %13 = trunc i64 %12 to i32
  ret i32 %13
}

; Function Attrs: inlinehint nounwind uwtable
define internal i32 @Agi_ObjLit0(ptr noundef %0, i32 noundef %1) #2 {
  %3 = alloca ptr, align 8
  %4 = alloca i32, align 4
  store ptr %0, ptr %3, align 8, !tbaa !7
  store i32 %1, ptr %4, align 4, !tbaa !3
  %5 = load ptr, ptr %3, align 8, !tbaa !7
  %6 = getelementptr inbounds nuw %struct.Agi_Man_t_, ptr %5, i32 0, i32 9
  %7 = load ptr, ptr %6, align 8, !tbaa !16
  %8 = load i32, ptr %4, align 4, !tbaa !3
  %9 = sext i32 %8 to i64
  %10 = getelementptr inbounds i64, ptr %7, i64 %9
  %11 = load i64, ptr %10, align 8, !tbaa !18
  %12 = trunc i64 %11 to i32
  ret i32 %12
}

; Function Attrs: inlinehint nounwind uwtable
define internal i32 @Agi_ObjVar1(ptr noundef %0, i32 noundef %1) #2 {
  %3 = alloca ptr, align 8
  %4 = alloca i32, align 4
  store ptr %0, ptr %3, align 8, !tbaa !7
  store i32 %1, ptr %4, align 4, !tbaa !3
  %5 = load ptr, ptr %3, align 8, !tbaa !7
  %6 = load i32, ptr %4, align 4, !tbaa !3
  %7 = call i32 @Agi_ObjLit1(ptr noundef %5, i32 noundef %6)
  %8 = lshr i32 %7, 1
  ret i32 %8
}

; Function Attrs: inlinehint nounwind uwtable
define internal i32 @Agi_ObjVar0(ptr noundef %0, i32 noundef %1) #2 {
  %3 = alloca ptr, align 8
  %4 = alloca i32, align 4
  store ptr %0, ptr %3, align 8, !tbaa !7
  store i32 %1, ptr %4, align 4, !tbaa !3
  %5 = load ptr, ptr %3, align 8, !tbaa !7
  %6 = load i32, ptr %4, align 4, !tbaa !3
  %7 = call i32 @Agi_ObjLit0(ptr noundef %5, i32 noundef %6)
  %8 = lshr i32 %7, 1
  ret i32 %8
}

; Function Attrs: inlinehint nounwind uwtable
define internal i32 @Agi_ObjIsCi(ptr noundef %0, i32 noundef %1) #2 {
  %3 = alloca ptr, align 8
  %4 = alloca i32, align 4
  store ptr %0, ptr %3, align 8, !tbaa !7
  store i32 %1, ptr %4, align 4, !tbaa !3
  %5 = load ptr, ptr %3, align 8, !tbaa !7
  %6 = getelementptr inbounds nuw %struct.Agi_Man_t_, ptr %5, i32 0, i32 9
  %7 = load ptr, ptr %6, align 8, !tbaa !16
  %8 = load i32, ptr %4, align 4, !tbaa !3
  %9 = sext i32 %8 to i64
  %10 = getelementptr inbounds i64, ptr %7, i64 %9
  %11 = load i64, ptr %10, align 8, !tbaa !18
  %12 = and i64 %11, -8589934592
  %13 = icmp eq i64 %12, -8589934592
  %14 = zext i1 %13 to i32
  ret i32 %14
}

; Function Attrs: nounwind uwtable
define i32 @Agi_ManSuppSize_rec(ptr noundef %0, i32 noundef %1) #0 {
  %3 = alloca i32, align 4
  %4 = alloca ptr, align 8
  %5 = alloca i32, align 4
  store ptr %0, ptr %4, align 8, !tbaa !7
  store i32 %1, ptr %5, align 4, !tbaa !3
  %6 = load ptr, ptr %4, align 8, !tbaa !7
  %7 = getelementptr inbounds nuw %struct.Agi_Man_t_, ptr %6, i32 0, i32 11
  %8 = load ptr, ptr %7, align 8, !tbaa !17
  %9 = load i32, ptr %5, align 4, !tbaa !3
  %10 = sext i32 %9 to i64
  %11 = getelementptr inbounds i32, ptr %8, i64 %10
  %12 = load i32, ptr %11, align 4, !tbaa !3
  %13 = load ptr, ptr %4, align 8, !tbaa !7
  %14 = getelementptr inbounds nuw %struct.Agi_Man_t_, ptr %13, i32 0, i32 6
  %15 = load i32, ptr %14, align 8, !tbaa !48
  %16 = icmp eq i32 %12, %15
  br i1 %16, label %17, label %18

17:                                               ; preds = %2
  store i32 0, ptr %3, align 4
  br label %45

18:                                               ; preds = %2
  %19 = load ptr, ptr %4, align 8, !tbaa !7
  %20 = getelementptr inbounds nuw %struct.Agi_Man_t_, ptr %19, i32 0, i32 6
  %21 = load i32, ptr %20, align 8, !tbaa !48
  %22 = load ptr, ptr %4, align 8, !tbaa !7
  %23 = getelementptr inbounds nuw %struct.Agi_Man_t_, ptr %22, i32 0, i32 11
  %24 = load ptr, ptr %23, align 8, !tbaa !17
  %25 = load i32, ptr %5, align 4, !tbaa !3
  %26 = sext i32 %25 to i64
  %27 = getelementptr inbounds i32, ptr %24, i64 %26
  store i32 %21, ptr %27, align 4, !tbaa !3
  %28 = load ptr, ptr %4, align 8, !tbaa !7
  %29 = load i32, ptr %5, align 4, !tbaa !3
  %30 = call i32 @Agi_ObjIsCi(ptr noundef %28, i32 noundef %29)
  %31 = icmp ne i32 %30, 0
  br i1 %31, label %32, label %33

32:                                               ; preds = %18
  store i32 1, ptr %3, align 4
  br label %45

33:                                               ; preds = %18
  %34 = load ptr, ptr %4, align 8, !tbaa !7
  %35 = load ptr, ptr %4, align 8, !tbaa !7
  %36 = load i32, ptr %5, align 4, !tbaa !3
  %37 = call i32 @Agi_ObjVar0(ptr noundef %35, i32 noundef %36)
  %38 = call i32 @Agi_ManSuppSize_rec(ptr noundef %34, i32 noundef %37)
  %39 = load ptr, ptr %4, align 8, !tbaa !7
  %40 = load ptr, ptr %4, align 8, !tbaa !7
  %41 = load i32, ptr %5, align 4, !tbaa !3
  %42 = call i32 @Agi_ObjVar1(ptr noundef %40, i32 noundef %41)
  %43 = call i32 @Agi_ManSuppSize_rec(ptr noundef %39, i32 noundef %42)
  %44 = add nsw i32 %38, %43
  store i32 %44, ptr %3, align 4
  br label %45

45:                                               ; preds = %33, %32, %17
  %46 = load i32, ptr %3, align 4
  ret i32 %46
}