; Function Attrs: nofree nosync nounwind memory(readwrite, inaccessiblemem: none) uwtable
define i32 @Agi_ManSuppSize_rec(ptr noundef readonly captures(none) %0, i32 noundef %1) local_unnamed_addr #6 {
  %3 = getelementptr inbounds nuw i8, ptr %0, i64 88
  %4 = getelementptr inbounds nuw i8, ptr %0, i64 32
  %5 = load ptr, ptr %3, align 8, !tbaa !14
  %6 = sext i32 %1 to i64
  %7 = getelementptr inbounds i32, ptr %5, i64 %6
  %8 = load i32, ptr %7, align 4, !tbaa !44
  %9 = load i32, ptr %4, align 8, !tbaa !47
  %10 = icmp eq i32 %8, %9
  br i1 %10, label %._crit_edge, label %.lr.ph

.lr.ph:                                           ; preds = %2
  %11 = getelementptr i8, ptr %0, i64 72
  %.val.pre = load ptr, ptr %11, align 8, !tbaa !13
  br label %12

12:                                               ; preds = %.lr.ph, %tailrecurse
  %.val = phi ptr [ %.val.pre, %.lr.ph ], [ %.val16, %tailrecurse ]
  %13 = phi i32 [ %9, %.lr.ph ], [ %28, %tailrecurse ]
  %14 = phi ptr [ %7, %.lr.ph ], [ %26, %tailrecurse ]
  %15 = phi i64 [ %6, %.lr.ph ], [ %sum.shift.i, %tailrecurse ]
  %accumulator.tr18 = phi i32 [ 0, %.lr.ph ], [ %24, %tailrecurse ]
  store i32 %13, ptr %14, align 4, !tbaa !44
  %16 = getelementptr inbounds i64, ptr %.val, i64 %15
  %17 = load i64, ptr %16, align 8, !tbaa !15
  %18 = icmp ult i64 %17, -8589934592
  br i1 %18, label %tailrecurse, label %._crit_edge.loopexit

tailrecurse:                                      ; preds = %12
  %19 = trunc i64 %17 to i32
  %20 = lshr i32 %19, 1
  %21 = tail call i32 @Agi_ManSuppSize_rec(ptr noundef nonnull %0, i32 noundef %20)
  %.val16 = load ptr, ptr %11, align 8, !tbaa !13
  %22 = getelementptr inbounds i64, ptr %.val16, i64 %15
  %23 = load i64, ptr %22, align 8, !tbaa !15
  %sum.shift.i = lshr i64 %23, 33
  %24 = add nsw i32 %21, %accumulator.tr18
  %25 = load ptr, ptr %3, align 8, !tbaa !14
  %26 = getelementptr inbounds nuw i32, ptr %25, i64 %sum.shift.i
  %27 = load i32, ptr %26, align 4, !tbaa !44
  %28 = load i32, ptr %4, align 8, !tbaa !47
  %29 = icmp eq i32 %27, %28
  br i1 %29, label %._crit_edge.loopexit, label %12

._crit_edge.loopexit:                             ; preds = %12, %tailrecurse
  %accumulator.tr.lcssa.ph = phi i32 [ %24, %tailrecurse ], [ %accumulator.tr18, %12 ]
  %.0.ph = phi i32 [ 0, %tailrecurse ], [ 1, %12 ]
  %30 = add nsw i32 %.0.ph, %accumulator.tr.lcssa.ph
  br label %._crit_edge

._crit_edge:                                      ; preds = %._crit_edge.loopexit, %2
  %accumulator.ret.tr = phi i32 [ 0, %2 ], [ %30, %._crit_edge.loopexit ]
  ret i32 %accumulator.ret.tr
}